; Function Attrs: mustprogress uwtable
define void @_ZN8device_t16register_commandEmSt8functionIFv9command_tEEPKc(ptr nocapture noundef nonnull readonly align 8 dereferenceable(56) %0, i64 noundef %1, ptr noundef %2, ptr noundef %3) local_unnamed_addr #3 align 2 personality ptr @__gxx_personality_v0 {
  %.sroa.0.i.i.i = alloca { i64, i64 }, align 8
  %5 = alloca %"class.std::function", align 8
  %6 = getelementptr inbounds i8, ptr %0, i64 8
  %7 = load ptr, ptr %6, align 8
  %8 = getelementptr inbounds %"class.std::function", ptr %7, i64 %1
  call void @llvm.lifetime.start.p0(i64 32, ptr nonnull %5)
  %9 = getelementptr inbounds i8, ptr %5, i64 16
  %10 = getelementptr inbounds i8, ptr %5, i64 24
  %11 = getelementptr inbounds i8, ptr %2, i64 16
  call void @llvm.memset.p0.i64(ptr noundef nonnull align 8 dereferenceable(32) %5, i8 0, i64 32, i1 false)
  %12 = load ptr, ptr %11, align 8
  %.not.i.i.not.i.i = icmp eq ptr %12, null
  br i1 %.not.i.i.not.i.i, label %_ZNSt8functionIFv9command_tEEC2ERKS2_.exit.i, label %13

13:                                               ; preds = %4
  %14 = invoke noundef zeroext i1 %12(ptr noundef nonnull align 8 dereferenceable(16) %5, ptr noundef nonnull align 8 dereferenceable(16) %2, i32 noundef 2)
          to label %15 unwind label %19

15:                                               ; preds = %13
  %16 = getelementptr inbounds i8, ptr %2, i64 24
  %17 = load ptr, ptr %16, align 8
  %18 = load ptr, ptr %11, align 8
  br label %_ZNSt8functionIFv9command_tEEC2ERKS2_.exit.i

19:                                               ; preds = %13
  %20 = landingpad { ptr, i32 }
          cleanup
  %21 = load ptr, ptr %9, align 8
  %.not.i.i.i = icmp eq ptr %21, null
  br i1 %.not.i.i.i, label %_ZNSt14_Function_baseD2Ev.exit.i.i, label %22

22:                                               ; preds = %19
  %23 = invoke noundef zeroext i1 %21(ptr noundef nonnull align 8 dereferenceable(16) %5, ptr noundef nonnull align 8 dereferenceable(16) %5, i32 noundef 3)
          to label %_ZNSt14_Function_baseD2Ev.exit.i.i unwind label %24

24:                                               ; preds = %22
  %25 = landingpad { ptr, i32 }
          catch ptr null
  %26 = extractvalue { ptr, i32 } %25, 0
  call void @__clang_call_terminate(ptr %26) #24
  unreachable

_ZNSt14_Function_baseD2Ev.exit.i.i:               ; preds = %22, %19
  resume { ptr, i32 } %20

_ZNSt8functionIFv9command_tEEC2ERKS2_.exit.i:     ; preds = %15, %4
  %27 = phi ptr [ null, %4 ], [ %17, %15 ]
  %28 = phi ptr [ null, %4 ], [ %18, %15 ]
  call void @llvm.lifetime.start.p0(i64 16, ptr nonnull %.sroa.0.i.i.i)
  call void @llvm.memcpy.p0.p0.i64(ptr noundef nonnull align 8 dereferenceable(16) %.sroa.0.i.i.i, ptr noundef nonnull align 8 dereferenceable(16) %5, i64 16, i1 false)
  call void @llvm.memcpy.p0.p0.i64(ptr noundef nonnull align 8 dereferenceable(16) %5, ptr noundef nonnull align 8 dereferenceable(16) %8, i64 16, i1 false)
  call void @llvm.memcpy.p0.p0.i64(ptr noundef nonnull align 8 dereferenceable(16) %8, ptr noundef nonnull align 8 dereferenceable(16) %.sroa.0.i.i.i, i64 16, i1 false)
  call void @llvm.lifetime.end.p0(i64 16, ptr nonnull %.sroa.0.i.i.i)
  %29 = getelementptr inbounds i8, ptr %8, i64 16
  %30 = load ptr, ptr %29, align 8
  store ptr %30, ptr %9, align 8
  store ptr %28, ptr %29, align 8
  %31 = getelementptr inbounds i8, ptr %8, i64 24
  %32 = load ptr, ptr %31, align 8
  store ptr %32, ptr %10, align 8
  store ptr %27, ptr %31, align 8
  %.not.i.i2.i = icmp eq ptr %30, null
  br i1 %.not.i.i2.i, label %_ZNSt8functionIFv9command_tEEaSERKS2_.exit, label %33

33:                                               ; preds = %_ZNSt8functionIFv9command_tEEC2ERKS2_.exit.i
  %34 = invoke noundef zeroext i1 %30(ptr noundef nonnull align 8 dereferenceable(16) %5, ptr noundef nonnull align 8 dereferenceable(16) %5, i32 noundef 3)
          to label %_ZNSt8functionIFv9command_tEEaSERKS2_.exit unwind label %35

35:                                               ; preds = %33
  %36 = landingpad { ptr, i32 }
          catch ptr null
  %37 = extractvalue { ptr, i32 } %36, 0
  call void @__clang_call_terminate(ptr %37) #24
  unreachable

_ZNSt8functionIFv9command_tEEaSERKS2_.exit:       ; preds = %_ZNSt8functionIFv9command_tEEC2ERKS2_.exit.i, %33
  call void @llvm.lifetime.end.p0(i64 32, ptr nonnull %5)
  %38 = getelementptr inbounds i8, ptr %0, i64 32
  %39 = load ptr, ptr %38, align 8
  %40 = getelementptr inbounds %"class.std::__cxx11::basic_string", ptr %39, i64 %1
  %41 = getelementptr inbounds i8, ptr %40, i64 8
  %42 = load i64, ptr %41, align 8
  %43 = call noundef i64 @strlen(ptr noundef nonnull dereferenceable(1) %3) #23
  %44 = call noundef nonnull align 8 dereferenceable(32) ptr @_ZNSt7__cxx1112basic_stringIcSt11char_traitsIcESaIcEE10_M_replaceEmmPKcm(ptr noundef nonnull align 8 dereferenceable(32) %40, i64 noundef 0, i64 noundef %42, ptr noundef %3, i64 noundef %43)
  ret void
}